target datalayout = "e-m:e-p270:32:32-p271:32:32-p272:64:64-i64:64-i128:128-f80:128-n8:16:32:64-S128"
target triple = "x86_64-pc-linux-gnu"

%struct.dt_control_crawler_result_t = type { i32, i64, i64, ptr, ptr }
%struct.dt_control_crawler_gui_t = type { ptr, ptr, ptr, ptr, ptr }
%struct._GtkTreeIter = type { i32, ptr, ptr, ptr }

@.str.48 = private unnamed_addr constant [1 x i8] zeroinitializer, align 1
@.str.50 = private unnamed_addr constant [32 x i8] c"ERROR: %s NOT synced XMP \E2\86\92 DB\00", align 1
@.str.51 = private unnamed_addr constant [85 x i8] c"ERROR: cannot write the database. the destination may be full, offline or read-only.\00", align 1
@.str.52 = private unnamed_addr constant [30 x i8] c"SUCCESS: %s synced XMP \E2\86\92 DB\00", align 1

; Function Attrs: nounwind uwtable
define internal void @_free_crawler_result(ptr noundef %0) #0 {
  %2 = alloca ptr, align 8
  store ptr %0, ptr %2, align 8, !tbaa !62
  %3 = load ptr, ptr %2, align 8, !tbaa !62
  %4 = getelementptr inbounds nuw %struct.dt_control_crawler_result_t, ptr %3, i32 0, i32 3
  %5 = load ptr, ptr %4, align 8, !tbaa !68
  call void @g_free(ptr noundef %5)
  %6 = load ptr, ptr %2, align 8, !tbaa !62
  %7 = getelementptr inbounds nuw %struct.dt_control_crawler_result_t, ptr %6, i32 0, i32 4
  %8 = load ptr, ptr %7, align 8, !tbaa !69
  call void @g_free(ptr noundef %8)
  %9 = load ptr, ptr %2, align 8, !tbaa !62
  %10 = getelementptr inbounds nuw %struct.dt_control_crawler_result_t, ptr %9, i32 0, i32 4
  store ptr null, ptr %10, align 8, !tbaa !69
  %11 = load ptr, ptr %2, align 8, !tbaa !62
  %12 = getelementptr inbounds nuw %struct.dt_control_crawler_result_t, ptr %11, i32 0, i32 3
  store ptr null, ptr %12, align 8, !tbaa !68
  ret void
}

; Function Attrs: nounwind uwtable
define internal void @_append_row_to_remove(ptr noundef %0, ptr noundef %1, ptr noundef %2) #0 {
  %4 = alloca ptr, align 8
  %5 = alloca ptr, align 8
  %6 = alloca ptr, align 8
  %7 = alloca ptr, align 8
  store ptr %0, ptr %4, align 8, !tbaa !87
  store ptr %1, ptr %5, align 8, !tbaa !88
  store ptr %2, ptr %6, align 8, !tbaa !135
  call void @llvm.lifetime.start.p0(i64 8, ptr %7) #11
  %8 = load ptr, ptr %4, align 8, !tbaa !87
  %9 = load ptr, ptr %5, align 8, !tbaa !88
  %10 = call ptr @gtk_tree_row_reference_new(ptr noundef %8, ptr noundef %9)
  store ptr %10, ptr %7, align 8, !tbaa !137
  %11 = load ptr, ptr %6, align 8, !tbaa !135
  %12 = load ptr, ptr %11, align 8, !tbaa !6
  %13 = load ptr, ptr %7, align 8, !tbaa !137
  %14 = call ptr @g_list_append(ptr noundef %12, ptr noundef %13)
  %15 = load ptr, ptr %6, align 8, !tbaa !135
  store ptr %14, ptr %15, align 8, !tbaa !6
  call void @llvm.lifetime.end.p0(i64 8, ptr %7) #11
  ret void
}

; Function Attrs: nounwind uwtable
define internal void @_log_synchronization(ptr noundef %0, ptr noundef %1, ptr noundef %2) #0 {
  %4 = alloca ptr, align 8
  %5 = alloca ptr, align 8
  %6 = alloca ptr, align 8
  %7 = alloca ptr, align 8
  %8 = alloca %struct._GtkTreeIter, align 8
  %9 = alloca ptr, align 8
  store ptr %0, ptr %4, align 8, !tbaa !76
  store ptr %1, ptr %5, align 8, !tbaa !57
  store ptr %2, ptr %6, align 8, !tbaa !57
  call void @llvm.lifetime.start.p0(i64 8, ptr %7) #11
  %10 = load ptr, ptr %5, align 8, !tbaa !57
  %11 = load ptr, ptr %6, align 8, !tbaa !57
  %12 = icmp ne ptr %11, null
  br i1 %12, label %13, label %15

13:                                               ; preds = %3
  %14 = load ptr, ptr %6, align 8, !tbaa !57
  br label %16

15:                                               ; preds = %3
  br label %16

16:                                               ; preds = %15, %13
  %17 = phi ptr [ %14, %13 ], [ @.str.48, %15 ]
  %18 = call ptr (ptr, ...) @g_markup_printf_escaped(ptr noundef %10, ptr noundef %17)
  store ptr %18, ptr %7, align 8, !tbaa !57
  call void @llvm.lifetime.start.p0(i64 32, ptr %8) #11
  call void @llvm.lifetime.start.p0(i64 8, ptr %9) #11
  %19 = load ptr, ptr %4, align 8, !tbaa !76
  %20 = getelementptr inbounds nuw %struct.dt_control_crawler_gui_t, ptr %19, i32 0, i32 2
  %21 = load ptr, ptr %20, align 8, !tbaa !110
  %22 = call i64 @gtk_tree_view_get_type() #15
  %23 = call ptr @g_type_check_instance_cast(ptr noundef %21, i64 noundef %22)
  %24 = call ptr @gtk_tree_view_get_model(ptr noundef %23)
  store ptr %24, ptr %9, align 8, !tbaa !87
  %25 = load ptr, ptr %9, align 8, !tbaa !87
  %26 = call i64 @gtk_list_store_get_type() #15
  %27 = call ptr @g_type_check_instance_cast(ptr noundef %25, i64 noundef %26)
  call void @gtk_list_store_append(ptr noundef %27, ptr noundef %8)
  %28 = load ptr, ptr %9, align 8, !tbaa !87
  %29 = call i64 @gtk_list_store_get_type() #15
  %30 = call ptr @g_type_check_instance_cast(ptr noundef %28, i64 noundef %29)
  %31 = load ptr, ptr %7, align 8, !tbaa !57
  call void (ptr, ptr, ...) @gtk_list_store_set(ptr noundef %30, ptr noundef %8, i32 noundef 0, ptr noundef %31, i32 noundef -1)
  %32 = load ptr, ptr %7, align 8, !tbaa !57
  call void @g_free(ptr noundef %32)
  call void @llvm.lifetime.end.p0(i64 8, ptr %9) #11
  call void @llvm.lifetime.end.p0(i64 32, ptr %8) #11
  call void @llvm.lifetime.end.p0(i64 8, ptr %7) #11
  ret void
}

; Function Attrs: nounwind uwtable
define internal void @_get_crawler_entry_from_model(ptr noundef %0, ptr noundef %1, ptr noundef %2) #0 {
  %4 = alloca ptr, align 8
  %5 = alloca ptr, align 8
  %6 = alloca ptr, align 8
  store ptr %0, ptr %4, align 8, !tbaa !87
  store ptr %1, ptr %5, align 8, !tbaa !90
  store ptr %2, ptr %6, align 8, !tbaa !62
  %7 = load ptr, ptr %4, align 8, !tbaa !87
  %8 = load ptr, ptr %5, align 8, !tbaa !90
  %9 = load ptr, ptr %6, align 8, !tbaa !62
  %10 = getelementptr inbounds nuw %struct.dt_control_crawler_result_t, ptr %9, i32 0, i32 3
  %11 = load ptr, ptr %6, align 8, !tbaa !62
  %12 = getelementptr inbounds nuw %struct.dt_control_crawler_result_t, ptr %11, i32 0, i32 0
  %13 = load ptr, ptr %6, align 8, !tbaa !62
  %14 = getelementptr inbounds nuw %struct.dt_control_crawler_result_t, ptr %13, i32 0, i32 4
  %15 = load ptr, ptr %6, align 8, !tbaa !62
  %16 = getelementptr inbounds nuw %struct.dt_control_crawler_result_t, ptr %15, i32 0, i32 2
  %17 = load ptr, ptr %6, align 8, !tbaa !62
  %18 = getelementptr inbounds nuw %struct.dt_control_crawler_result_t, ptr %17, i32 0, i32 1
  call void (ptr, ptr, ...) @gtk_tree_model_get(ptr noundef %7, ptr noundef %8, i32 noundef 1, ptr noundef %10, i32 noundef 0, ptr noundef %12, i32 noundef 2, ptr noundef %14, i32 noundef 6, ptr noundef %16, i32 noundef 5, ptr noundef %18, i32 noundef -1)
  ret void
}

; Function Attrs: nounwind uwtable
define internal void @sync_xmp_to_db(ptr noundef %0, ptr noundef %1, ptr noundef %2, ptr noundef %3) #0 {
  %5 = alloca ptr, align 8
  %6 = alloca ptr, align 8
  %7 = alloca ptr, align 8
  %8 = alloca ptr, align 8
  %9 = alloca ptr, align 8
  %10 = alloca %struct.dt_control_crawler_result_t, align 8
  %11 = alloca i32, align 4
  store ptr %0, ptr %5, align 8, !tbaa !87
  store ptr %1, ptr %6, align 8, !tbaa !88
  store ptr %2, ptr %7, align 8, !tbaa !90
  store ptr %3, ptr %8, align 8, !tbaa !75
  call void @llvm.lifetime.start.p0(i64 8, ptr %9) #11
  %12 = load ptr, ptr %8, align 8, !tbaa !75
  store ptr %12, ptr %9, align 8, !tbaa !76
  call void @llvm.lifetime.start.p0(i64 40, ptr %10) #11
  call void @llvm.memset.p0.i64(ptr align 8 %10, i8 0, i64 40, i1 false)
  %13 = load ptr, ptr %5, align 8, !tbaa !87
  %14 = load ptr, ptr %7, align 8, !tbaa !90
  call void @_get_crawler_entry_from_model(ptr noundef %13, ptr noundef %14, ptr noundef %10)
  %15 = getelementptr inbounds nuw %struct.dt_control_crawler_result_t, ptr %10, i32 0, i32 0
  %16 = load i32, ptr %15, align 8, !tbaa !64
  %17 = getelementptr inbounds nuw %struct.dt_control_crawler_result_t, ptr %10, i32 0, i32 1
  %18 = load i64, ptr %17, align 8, !tbaa !66
  call void @_db_update_timestamp(i32 noundef %16, i64 noundef %18)
  call void @llvm.lifetime.start.p0(i64 4, ptr %11) #11
  %19 = getelementptr inbounds nuw %struct.dt_control_crawler_result_t, ptr %10, i32 0, i32 0
  %20 = load i32, ptr %19, align 8, !tbaa !64
  %21 = getelementptr inbounds nuw %struct.dt_control_crawler_result_t, ptr %10, i32 0, i32 4
  %22 = load ptr, ptr %21, align 8, !tbaa !69
  %23 = call i32 @dt_history_load_and_apply(i32 noundef %20, ptr noundef %22, i32 noundef 0)
  store i32 %23, ptr %11, align 4, !tbaa !11
  %24 = load i32, ptr %11, align 4, !tbaa !11
  %25 = icmp ne i32 %24, 0
  br i1 %25, label %26, label %33

26:                                               ; preds = %4
  %27 = load ptr, ptr %9, align 8, !tbaa !76
  %28 = call ptr @dcgettext(ptr noundef null, ptr noundef @.str.50, i32 noundef 5) #11
  %29 = getelementptr inbounds nuw %struct.dt_control_crawler_result_t, ptr %10, i32 0, i32 3
  %30 = load ptr, ptr %29, align 8, !tbaa !68
  call void @_log_synchronization(ptr noundef %27, ptr noundef %28, ptr noundef %30)
  %31 = load ptr, ptr %9, align 8, !tbaa !76
  %32 = call ptr @dcgettext(ptr noundef null, ptr noundef @.str.51, i32 noundef 5) #11
  call void @_log_synchronization(ptr noundef %31, ptr noundef %32, ptr noundef null)
  br label %42

33:                                               ; preds = %4
  %34 = load ptr, ptr %5, align 8, !tbaa !87
  %35 = load ptr, ptr %6, align 8, !tbaa !88
  %36 = load ptr, ptr %9, align 8, !tbaa !76
  %37 = getelementptr inbounds nuw %struct.dt_control_crawler_gui_t, ptr %36, i32 0, i32 4
  call void @_append_row_to_remove(ptr noundef %34, ptr noundef %35, ptr noundef %37)
  %38 = load ptr, ptr %9, align 8, !tbaa !76
  %39 = call ptr @dcgettext(ptr noundef null, ptr noundef @.str.52, i32 noundef 5) #11
  %40 = getelementptr inbounds nuw %struct.dt_control_crawler_result_t, ptr %10, i32 0, i32 3
  %41 = load ptr, ptr %40, align 8, !tbaa !68
  call void @_log_synchronization(ptr noundef %38, ptr noundef %39, ptr noundef %41)
  br label %42

42:                                               ; preds = %33, %26
  call void @_free_crawler_result(ptr noundef %10)
  call void @llvm.lifetime.end.p0(i64 4, ptr %11) #11
  call void @llvm.lifetime.end.p0(i64 40, ptr %10) #11
  call void @llvm.lifetime.end.p0(i64 8, ptr %9) #11
  ret void
}