; Function Attrs: nounwind uwtable
define internal void @sync_xmp_to_db(ptr noundef %0, ptr noundef %1, ptr noundef %2, ptr noundef captures(none) %3) #0 {
  %5 = alloca %struct._GtkTreeIter, align 8
  %6 = alloca %struct._GtkTreeIter, align 8
  %7 = alloca %struct._GtkTreeIter, align 8
  %8 = alloca %struct.dt_control_crawler_result_t, align 8
  call void @llvm.lifetime.start.p0(i64 40, ptr nonnull %8) #13
  call void @llvm.memset.p0.i64(ptr noundef nonnull align 8 dereferenceable(40) %8, i8 0, i64 40, i1 false)
  %9 = getelementptr inbounds nuw i8, ptr %8, i64 24
  %10 = getelementptr inbounds nuw i8, ptr %8, i64 32
  %11 = getelementptr inbounds nuw i8, ptr %8, i64 16
  %12 = getelementptr inbounds nuw i8, ptr %8, i64 8
  call void (ptr, ptr, ...) @gtk_tree_model_get(ptr noundef %0, ptr noundef %2, i32 noundef 1, ptr noundef nonnull %9, i32 noundef 0, ptr noundef nonnull %8, i32 noundef 2, ptr noundef nonnull %10, i32 noundef 6, ptr noundef nonnull %11, i32 noundef 5, ptr noundef nonnull %12, i32 noundef -1) #13
  %13 = load i32, ptr %8, align 8, !tbaa !60
  %14 = load i64, ptr %12, align 8, !tbaa !62
  call fastcc void @_db_update_timestamp(i32 noundef %13, i64 noundef %14)
  %15 = load i32, ptr %8, align 8, !tbaa !60
  %16 = load ptr, ptr %10, align 8, !tbaa !65
  %17 = call i32 @dt_history_load_and_apply(i32 noundef %15, ptr noundef %16, i32 noundef 0) #13
  %.not = icmp eq i32 %17, 0
  br i1 %.not, label %38, label %18

18:                                               ; preds = %4
  %19 = call ptr @dcgettext(ptr noundef null, ptr noundef nonnull @.str.50, i32 noundef 5) #13
  %20 = load ptr, ptr %9, align 8, !tbaa !64
  %.not.i = icmp eq ptr %20, null
  %21 = select i1 %.not.i, ptr @.str.48, ptr %20
  %22 = call ptr (ptr, ...) @g_markup_printf_escaped(ptr noundef %19, ptr noundef nonnull %21) #13
  call void @llvm.lifetime.start.p0(i64 32, ptr nonnull %7) #13
  %23 = getelementptr inbounds nuw i8, ptr %3, i64 16
  %24 = load ptr, ptr %23, align 8, !tbaa !74
  %25 = tail call i64 @gtk_tree_view_get_type() #18
  %26 = call ptr @g_type_check_instance_cast(ptr noundef %24, i64 noundef %25) #13
  %27 = call ptr @gtk_tree_view_get_model(ptr noundef %26) #13
  %28 = tail call i64 @gtk_list_store_get_type() #18
  %29 = call ptr @g_type_check_instance_cast(ptr noundef %27, i64 noundef %28) #13
  call void @gtk_list_store_append(ptr noundef %29, ptr noundef nonnull %7) #13
  %30 = call ptr @g_type_check_instance_cast(ptr noundef %27, i64 noundef %28) #13
  call void (ptr, ptr, ...) @gtk_list_store_set(ptr noundef %30, ptr noundef nonnull %7, i32 noundef 0, ptr noundef %22, i32 noundef -1) #13
  call void @g_free(ptr noundef %22) #13
  call void @llvm.lifetime.end.p0(i64 32, ptr nonnull %7) #13
  %31 = call ptr @dcgettext(ptr noundef null, ptr noundef nonnull @.str.51, i32 noundef 5) #13
  %32 = call ptr (ptr, ...) @g_markup_printf_escaped(ptr noundef %31, ptr noundef nonnull @.str.48) #13
  call void @llvm.lifetime.start.p0(i64 32, ptr nonnull %6) #13
  %33 = load ptr, ptr %23, align 8, !tbaa !74
  %34 = call ptr @g_type_check_instance_cast(ptr noundef %33, i64 noundef %25) #13
  %35 = call ptr @gtk_tree_view_get_model(ptr noundef %34) #13
  %36 = call ptr @g_type_check_instance_cast(ptr noundef %35, i64 noundef %28) #13
  call void @gtk_list_store_append(ptr noundef %36, ptr noundef nonnull %6) #13
  %37 = call ptr @g_type_check_instance_cast(ptr noundef %35, i64 noundef %28) #13
  call void (ptr, ptr, ...) @gtk_list_store_set(ptr noundef %37, ptr noundef nonnull %6, i32 noundef 0, ptr noundef %32, i32 noundef -1) #13
  call void @g_free(ptr noundef %32) #13
  call void @llvm.lifetime.end.p0(i64 32, ptr nonnull %6) #13
  br label %55

38:                                               ; preds = %4
  %39 = getelementptr inbounds nuw i8, ptr %3, i64 32
  %40 = call ptr @gtk_tree_row_reference_new(ptr noundef %0, ptr noundef %1) #13
  %41 = load ptr, ptr %39, align 8, !tbaa !75
  %42 = call ptr @g_list_append(ptr noundef %41, ptr noundef %40) #13
  store ptr %42, ptr %39, align 8, !tbaa !75
  %43 = call ptr @dcgettext(ptr noundef null, ptr noundef nonnull @.str.52, i32 noundef 5) #13
  %44 = load ptr, ptr %9, align 8, !tbaa !64
  %.not.i9 = icmp eq ptr %44, null
  %45 = select i1 %.not.i9, ptr @.str.48, ptr %44
  %46 = call ptr (ptr, ...) @g_markup_printf_escaped(ptr noundef %43, ptr noundef nonnull %45) #13
  call void @llvm.lifetime.start.p0(i64 32, ptr nonnull %5) #13
  %47 = getelementptr inbounds nuw i8, ptr %3, i64 16
  %48 = load ptr, ptr %47, align 8, !tbaa !74
  %49 = tail call i64 @gtk_tree_view_get_type() #18
  %50 = call ptr @g_type_check_instance_cast(ptr noundef %48, i64 noundef %49) #13
  %51 = call ptr @gtk_tree_view_get_model(ptr noundef %50) #13
  %52 = tail call i64 @gtk_list_store_get_type() #18
  %53 = call ptr @g_type_check_instance_cast(ptr noundef %51, i64 noundef %52) #13
  call void @gtk_list_store_append(ptr noundef %53, ptr noundef nonnull %5) #13
  %54 = call ptr @g_type_check_instance_cast(ptr noundef %51, i64 noundef %52) #13
  call void (ptr, ptr, ...) @gtk_list_store_set(ptr noundef %54, ptr noundef nonnull %5, i32 noundef 0, ptr noundef %46, i32 noundef -1) #13
  call void @g_free(ptr noundef %46) #13
  call void @llvm.lifetime.end.p0(i64 32, ptr nonnull %5) #13
  br label %55

55:                                               ; preds = %38, %18
  %56 = load ptr, ptr %9, align 8, !tbaa !64
  call void @g_free(ptr noundef %56) #13
  %57 = load ptr, ptr %10, align 8, !tbaa !65
  call void @g_free(ptr noundef %57) #13
  call void @llvm.lifetime.end.p0(i64 40, ptr nonnull %8) #13
  ret void
}